target datalayout = "e-m:e-p270:32:32-p271:32:32-p272:64:64-i64:64-i128:128-f80:128-n8:16:32:64-S128"
target triple = "x86_64-pc-linux-gnu"

; Function Attrs: mustprogress uwtable
define i32 @zmq_proxy_steerable(ptr noundef %0, ptr noundef %1, ptr noundef %2, ptr noundef %3) #1 {
  %5 = alloca i32, align 4
  %6 = alloca ptr, align 8
  %7 = alloca ptr, align 8
  %8 = alloca ptr, align 8
  %9 = alloca ptr, align 8
  store ptr %0, ptr %6, align 8, !tbaa !12
  store ptr %1, ptr %7, align 8, !tbaa !12
  store ptr %2, ptr %8, align 8, !tbaa !12
  store ptr %3, ptr %9, align 8, !tbaa !12
  %10 = load ptr, ptr %6, align 8, !tbaa !12
  %11 = icmp ne ptr %10, null
  br i1 %11, label %12, label %15

12:                                               ; preds = %4
  %13 = load ptr, ptr %7, align 8, !tbaa !12
  %14 = icmp ne ptr %13, null
  br i1 %14, label %17, label %15

15:                                               ; preds = %12, %4
  %16 = call ptr @__errno_location() #19
  store i32 14, ptr %16, align 4, !tbaa !8
  store i32 -1, ptr %5, align 4
  br label %23

17:                                               ; preds = %12
  %18 = load ptr, ptr %6, align 8, !tbaa !12
  %19 = load ptr, ptr %7, align 8, !tbaa !12
  %20 = load ptr, ptr %8, align 8, !tbaa !12
  %21 = load ptr, ptr %9, align 8, !tbaa !12
  %22 = call noundef i32 @_ZN3zmq15proxy_steerableEPNS_13socket_base_tES1_S1_S1_(ptr noundef %18, ptr noundef %19, ptr noundef %20, ptr noundef %21)
  store i32 %22, ptr %5, align 4
  br label %23

23:                                               ; preds = %17, %15
  %24 = load i32, ptr %5, align 4
  ret i32 %24
}