; Function Attrs: mustprogress uwtable
define noundef i32 @zmq_proxy_steerable(ptr noundef %0, ptr noundef %1, ptr noundef %2, ptr noundef %3) local_unnamed_addr #1 {
  %5 = icmp ne ptr %0, null
  %6 = icmp ne ptr %1, null
  %or.cond = and i1 %5, %6
  br i1 %or.cond, label %9, label %7

7:                                                ; preds = %4
  %8 = tail call ptr @__errno_location() #20
  store i32 14, ptr %8, align 4, !tbaa !3
  br label %11

9:                                                ; preds = %4
  %10 = tail call noundef i32 @_ZN3zmq15proxy_steerableEPNS_13socket_base_tES1_S1_S1_(ptr noundef nonnull %0, ptr noundef nonnull %1, ptr noundef %2, ptr noundef %3)
  br label %11

11:                                               ; preds = %9, %7
  %.0 = phi i32 [ %10, %9 ], [ -1, %7 ]
  ret i32 %.0
}